; Function Attrs: nounwind uwtable
define internal fastcc noundef nonnull ptr @tree_reopen(ptr noundef nonnull returned initializes((8, 24), (32, 44), (56, 64), (80, 92), (400, 404), (481, 482), (504, 508), (520, 536)) %0, ptr noundef %1, i32 noundef range(i32 0, 2) %2) unnamed_addr #0 {
  %.not = icmp eq i32 %2, 0
  %4 = getelementptr inbounds nuw i8, ptr %0, i64 32
  %5 = select i1 %.not, i32 256, i32 384
  store i32 %5, ptr %4, align 8
  %6 = getelementptr inbounds nuw i8, ptr %0, i64 36
  store i32 0, ptr %6, align 4
  %7 = getelementptr inbounds nuw i8, ptr %0, i64 40
  store i32 0, ptr %7, align 8
  %8 = getelementptr inbounds nuw i8, ptr %0, i64 80
  store i64 0, ptr %8, align 8
  %9 = getelementptr inbounds nuw i8, ptr %0, i64 88
  store i32 0, ptr %9, align 8
  %10 = getelementptr inbounds nuw i8, ptr %0, i64 400
  store i32 0, ptr %10, align 8
  %11 = getelementptr inbounds nuw i8, ptr %0, i64 8
  %12 = getelementptr inbounds nuw i8, ptr %0, i64 480
  tail call void @llvm.memset.p0.i64(ptr noundef nonnull align 8 dereferenceable(16) %11, i8 0, i64 16, i1 false)
  %13 = load i8, ptr %12, align 8
  %14 = getelementptr inbounds nuw i8, ptr %0, i64 481
  store i8 %13, ptr %14, align 1
  %15 = getelementptr inbounds nuw i8, ptr %0, i64 56
  store i64 0, ptr %15, align 8
  %16 = getelementptr inbounds nuw i8, ptr %0, i64 520
  store i32 -1, ptr %16, align 8
  %17 = getelementptr inbounds nuw i8, ptr %0, i64 524
  store i32 0, ptr %17, align 4
  %18 = getelementptr inbounds nuw i8, ptr %0, i64 528
  store i64 0, ptr %18, align 8
  %19 = getelementptr inbounds nuw i8, ptr %0, i64 504
  store i32 -1, ptr %19, align 8
  %20 = tail call noalias dereferenceable_or_null(136) ptr @calloc(i64 noundef 1, i64 noundef 136) #18
  %21 = icmp eq ptr %20, null
  br i1 %21, label %22, label %23

22:                                               ; preds = %3
  tail call void @__archive_errx(i32 noundef 1, ptr noundef nonnull @.str.40) #19
  unreachable

23:                                               ; preds = %3
  %24 = load ptr, ptr %0, align 8
  %25 = getelementptr inbounds nuw i8, ptr %20, i64 8
  store ptr %24, ptr %25, align 8
  store ptr %20, ptr %0, align 8
  %26 = getelementptr inbounds nuw i8, ptr %20, i64 24
  %27 = getelementptr inbounds nuw i8, ptr %20, i64 80
  store i32 -1, ptr %27, align 8
  %28 = icmp eq ptr %1, null
  br i1 %28, label %tree_push.exit, label %29

29:                                               ; preds = %23
  %30 = tail call i64 @strlen(ptr noundef nonnull dereferenceable(1) %1) #20
  br label %tree_push.exit

tree_push.exit:                                   ; preds = %23, %29
  %31 = phi i64 [ %30, %29 ], [ 0, %23 ]
  %32 = tail call ptr @archive_strncat(ptr noundef nonnull %26, ptr noundef %1, i64 noundef %31) #17
  %33 = getelementptr inbounds nuw i8, ptr %20, i64 72
  store i32 56, ptr %33, align 8
  %34 = getelementptr inbounds nuw i8, ptr %20, i64 76
  store i32 0, ptr %34, align 4
  %35 = getelementptr inbounds nuw i8, ptr %20, i64 56
  tail call void @llvm.memset.p0.i64(ptr noundef nonnull align 8 dereferenceable(16) %35, i8 0, i64 16, i1 false)
  %36 = load i64, ptr %8, align 8
  %37 = getelementptr inbounds nuw i8, ptr %20, i64 48
  store i64 %36, ptr %37, align 8
  %38 = load ptr, ptr %26, align 8
  %39 = getelementptr inbounds nuw i8, ptr %20, i64 88
  store ptr %38, ptr %39, align 8
  %40 = load ptr, ptr %0, align 8
  %41 = getelementptr inbounds nuw i8, ptr %40, i64 72
  store i32 4, ptr %41, align 8
  %42 = getelementptr inbounds nuw i8, ptr %0, i64 92
  store i32 1, ptr %42, align 4
  %43 = getelementptr inbounds nuw i8, ptr %0, i64 96
  store i32 1, ptr %43, align 8
  %44 = tail call i32 (ptr, i32, ...) @open(ptr noundef nonnull @.str.39, i32 noundef 524288) #17
  %45 = getelementptr inbounds nuw i8, ptr %0, i64 100
  store i32 %44, ptr %45, align 4
  %46 = icmp slt i32 %44, 0
  br i1 %46, label %47, label %49

47:                                               ; preds = %tree_push.exit
  %48 = tail call i32 (ptr, i32, ...) @open(ptr noundef nonnull @.str.39, i32 noundef 2621440) #17
  store i32 %48, ptr %45, align 4
  br label %49

49:                                               ; preds = %47, %tree_push.exit
  %50 = phi i32 [ %48, %47 ], [ %44, %tree_push.exit ]
  tail call void @__archive_ensure_cloexec_flag(i32 noundef %50) #17
  %51 = load i32, ptr %45, align 4
  %52 = load volatile i32, ptr @tree_dup.can_dupfd_cloexec, align 4
  %.not.i28 = icmp eq i32 %52, 0
  br i1 %.not.i28, label %56, label %53

53:                                               ; preds = %49
  %54 = tail call i32 (i32, i32, ...) @fcntl(i32 noundef %51, i32 noundef 1030, i32 noundef 0) #17
  %.not8.i = icmp eq i32 %54, -1
  br i1 %.not8.i, label %55, label %tree_dup.exit

55:                                               ; preds = %53
  store volatile i32 0, ptr @tree_dup.can_dupfd_cloexec, align 4
  br label %56

56:                                               ; preds = %55, %49
  %57 = tail call i32 @dup(i32 noundef %51) #17
  tail call void @__archive_ensure_cloexec_flag(i32 noundef %57) #17
  br label %tree_dup.exit

tree_dup.exit:                                    ; preds = %53, %56
  %.0.i = phi i32 [ %57, %56 ], [ %54, %53 ]
  %58 = getelementptr inbounds nuw i8, ptr %0, i64 104
  store i32 %.0.i, ptr %58, align 8
  ret ptr %0
}